target datalayout = "e-m:e-p270:32:32-p271:32:32-p272:64:64-i64:64-i128:128-f80:128-n8:16:32:64-S128"
target triple = "x86_64-pc-linux-gnu"

%struct.added_obj_st = type { i32, ptr }
%struct.asn1_object_st = type { ptr, ptr, i32, i32, ptr, i32 }

; Function Attrs: nounwind uwtable
define internal i32 @added_obj_cmp(ptr noundef %0, ptr noundef %1) #0 {
  %3 = alloca i32, align 4
  %4 = alloca ptr, align 8
  %5 = alloca ptr, align 8
  %6 = alloca ptr, align 8
  %7 = alloca ptr, align 8
  %8 = alloca i32, align 4
  %9 = alloca i32, align 4
  store ptr %0, ptr %4, align 8, !tbaa !11
  store ptr %1, ptr %5, align 8, !tbaa !11
  call void @llvm.lifetime.start.p0(i64 8, ptr %6) #6
  call void @llvm.lifetime.start.p0(i64 8, ptr %7) #6
  call void @llvm.lifetime.start.p0(i64 4, ptr %8) #6
  %10 = load ptr, ptr %4, align 8, !tbaa !11
  %11 = getelementptr inbounds nuw %struct.added_obj_st, ptr %10, i32 0, i32 0
  %12 = load i32, ptr %11, align 8, !tbaa !22
  %13 = load ptr, ptr %5, align 8, !tbaa !11
  %14 = getelementptr inbounds nuw %struct.added_obj_st, ptr %13, i32 0, i32 0
  %15 = load i32, ptr %14, align 8, !tbaa !22
  %16 = sub nsw i32 %12, %15
  store i32 %16, ptr %8, align 4, !tbaa !21
  %17 = load i32, ptr %8, align 4, !tbaa !21
  %18 = icmp ne i32 %17, 0
  br i1 %18, label %19, label %21

19:                                               ; preds = %2
  %20 = load i32, ptr %8, align 4, !tbaa !21
  store i32 %20, ptr %3, align 4
  store i32 1, ptr %9, align 4
  br label %104

21:                                               ; preds = %2
  %22 = load ptr, ptr %4, align 8, !tbaa !11
  %23 = getelementptr inbounds nuw %struct.added_obj_st, ptr %22, i32 0, i32 1
  %24 = load ptr, ptr %23, align 8, !tbaa !13
  store ptr %24, ptr %6, align 8, !tbaa !23
  %25 = load ptr, ptr %5, align 8, !tbaa !11
  %26 = getelementptr inbounds nuw %struct.added_obj_st, ptr %25, i32 0, i32 1
  %27 = load ptr, ptr %26, align 8, !tbaa !13
  store ptr %27, ptr %7, align 8, !tbaa !23
  %28 = load ptr, ptr %4, align 8, !tbaa !11
  %29 = getelementptr inbounds nuw %struct.added_obj_st, ptr %28, i32 0, i32 0
  %30 = load i32, ptr %29, align 8, !tbaa !22
  switch i32 %30, label %103 [
    i32 0, label %31
    i32 1, label %55
    i32 2, label %75
    i32 3, label %95
  ]

31:                                               ; preds = %21
  %32 = load ptr, ptr %6, align 8, !tbaa !23
  %33 = getelementptr inbounds nuw %struct.asn1_object_st, ptr %32, i32 0, i32 3
  %34 = load i32, ptr %33, align 4, !tbaa !31
  %35 = load ptr, ptr %7, align 8, !tbaa !23
  %36 = getelementptr inbounds nuw %struct.asn1_object_st, ptr %35, i32 0, i32 3
  %37 = load i32, ptr %36, align 4, !tbaa !31
  %38 = sub nsw i32 %34, %37
  store i32 %38, ptr %8, align 4, !tbaa !21
  %39 = load i32, ptr %8, align 4, !tbaa !21
  %40 = icmp ne i32 %39, 0
  br i1 %40, label %41, label %43

41:                                               ; preds = %31
  %42 = load i32, ptr %8, align 4, !tbaa !21
  store i32 %42, ptr %3, align 4
  store i32 1, ptr %9, align 4
  br label %104

43:                                               ; preds = %31
  %44 = load ptr, ptr %6, align 8, !tbaa !23
  %45 = getelementptr inbounds nuw %struct.asn1_object_st, ptr %44, i32 0, i32 4
  %46 = load ptr, ptr %45, align 8, !tbaa !30
  %47 = load ptr, ptr %7, align 8, !tbaa !23
  %48 = getelementptr inbounds nuw %struct.asn1_object_st, ptr %47, i32 0, i32 4
  %49 = load ptr, ptr %48, align 8, !tbaa !30
  %50 = load ptr, ptr %6, align 8, !tbaa !23
  %51 = getelementptr inbounds nuw %struct.asn1_object_st, ptr %50, i32 0, i32 3
  %52 = load i32, ptr %51, align 4, !tbaa !31
  %53 = sext i32 %52 to i64
  %54 = call i32 @memcmp(ptr noundef %46, ptr noundef %49, i64 noundef %53) #7
  store i32 %54, ptr %3, align 4
  store i32 1, ptr %9, align 4
  br label %104

55:                                               ; preds = %21
  %56 = load ptr, ptr %6, align 8, !tbaa !23
  %57 = getelementptr inbounds nuw %struct.asn1_object_st, ptr %56, i32 0, i32 0
  %58 = load ptr, ptr %57, align 8, !tbaa !24
  %59 = icmp eq ptr %58, null
  br i1 %59, label %60, label %61

60:                                               ; preds = %55
  store i32 -1, ptr %3, align 4
  store i32 1, ptr %9, align 4
  br label %104

61:                                               ; preds = %55
  %62 = load ptr, ptr %7, align 8, !tbaa !23
  %63 = getelementptr inbounds nuw %struct.asn1_object_st, ptr %62, i32 0, i32 0
  %64 = load ptr, ptr %63, align 8, !tbaa !24
  %65 = icmp eq ptr %64, null
  br i1 %65, label %66, label %67

66:                                               ; preds = %61
  store i32 1, ptr %3, align 4
  store i32 1, ptr %9, align 4
  br label %104

67:                                               ; preds = %61
  %68 = load ptr, ptr %6, align 8, !tbaa !23
  %69 = getelementptr inbounds nuw %struct.asn1_object_st, ptr %68, i32 0, i32 0
  %70 = load ptr, ptr %69, align 8, !tbaa !24
  %71 = load ptr, ptr %7, align 8, !tbaa !23
  %72 = getelementptr inbounds nuw %struct.asn1_object_st, ptr %71, i32 0, i32 0
  %73 = load ptr, ptr %72, align 8, !tbaa !24
  %74 = call i32 @strcmp(ptr noundef %70, ptr noundef %73) #7
  store i32 %74, ptr %3, align 4
  store i32 1, ptr %9, align 4
  br label %104

75:                                               ; preds = %21
  %76 = load ptr, ptr %6, align 8, !tbaa !23
  %77 = getelementptr inbounds nuw %struct.asn1_object_st, ptr %76, i32 0, i32 1
  %78 = load ptr, ptr %77, align 8, !tbaa !25
  %79 = icmp eq ptr %78, null
  br i1 %79, label %80, label %81

80:                                               ; preds = %75
  store i32 -1, ptr %3, align 4
  store i32 1, ptr %9, align 4
  br label %104

81:                                               ; preds = %75
  %82 = load ptr, ptr %7, align 8, !tbaa !23
  %83 = getelementptr inbounds nuw %struct.asn1_object_st, ptr %82, i32 0, i32 1
  %84 = load ptr, ptr %83, align 8, !tbaa !25
  %85 = icmp eq ptr %84, null
  br i1 %85, label %86, label %87

86:                                               ; preds = %81
  store i32 1, ptr %3, align 4
  store i32 1, ptr %9, align 4
  br label %104

87:                                               ; preds = %81
  %88 = load ptr, ptr %6, align 8, !tbaa !23
  %89 = getelementptr inbounds nuw %struct.asn1_object_st, ptr %88, i32 0, i32 1
  %90 = load ptr, ptr %89, align 8, !tbaa !25
  %91 = load ptr, ptr %7, align 8, !tbaa !23
  %92 = getelementptr inbounds nuw %struct.asn1_object_st, ptr %91, i32 0, i32 1
  %93 = load ptr, ptr %92, align 8, !tbaa !25
  %94 = call i32 @strcmp(ptr noundef %90, ptr noundef %93) #7
  store i32 %94, ptr %3, align 4
  store i32 1, ptr %9, align 4
  br label %104

95:                                               ; preds = %21
  %96 = load ptr, ptr %6, align 8, !tbaa !23
  %97 = getelementptr inbounds nuw %struct.asn1_object_st, ptr %96, i32 0, i32 2
  %98 = load i32, ptr %97, align 8, !tbaa !17
  %99 = load ptr, ptr %7, align 8, !tbaa !23
  %100 = getelementptr inbounds nuw %struct.asn1_object_st, ptr %99, i32 0, i32 2
  %101 = load i32, ptr %100, align 8, !tbaa !17
  %102 = sub nsw i32 %98, %101
  store i32 %102, ptr %3, align 4
  store i32 1, ptr %9, align 4
  br label %104

103:                                              ; preds = %21
  store i32 0, ptr %3, align 4
  store i32 1, ptr %9, align 4
  br label %104

104:                                              ; preds = %103, %95, %87, %86, %80, %67, %66, %60, %43, %41, %19
  call void @llvm.lifetime.end.p0(i64 4, ptr %8) #6
  call void @llvm.lifetime.end.p0(i64 8, ptr %7) #6
  call void @llvm.lifetime.end.p0(i64 8, ptr %6) #6
  %105 = load i32, ptr %3, align 4
  ret i32 %105
}