; Function Attrs: mustprogress nofree nounwind willreturn memory(read, inaccessiblemem: none) uwtable
define internal i32 @added_obj_cmp(ptr noundef readonly captures(none) %0, ptr noundef readonly captures(none) %1) #7 {
  %3 = load i32, ptr %0, align 8, !tbaa !17
  %4 = load i32, ptr %1, align 8, !tbaa !17
  %5 = sub nsw i32 %3, %4
  %.not = icmp eq i32 %5, 0
  br i1 %.not, label %6, label %48

6:                                                ; preds = %2
  %7 = getelementptr inbounds nuw i8, ptr %0, i64 8
  %8 = load ptr, ptr %7, align 8, !tbaa !9
  %9 = getelementptr inbounds nuw i8, ptr %1, i64 8
  %10 = load ptr, ptr %9, align 8, !tbaa !9
  switch i32 %3, label %48 [
    i32 0, label %11
    i32 1, label %24
    i32 2, label %32
    i32 3, label %42
  ]

11:                                               ; preds = %6
  %12 = getelementptr inbounds nuw i8, ptr %8, i64 20
  %13 = load i32, ptr %12, align 4, !tbaa !25
  %14 = getelementptr inbounds nuw i8, ptr %10, i64 20
  %15 = load i32, ptr %14, align 4, !tbaa !25
  %16 = sub nsw i32 %13, %15
  %.not30 = icmp eq i32 %16, 0
  br i1 %.not30, label %17, label %48

17:                                               ; preds = %11
  %18 = getelementptr inbounds nuw i8, ptr %8, i64 24
  %19 = load ptr, ptr %18, align 8, !tbaa !24
  %20 = getelementptr inbounds nuw i8, ptr %10, i64 24
  %21 = load ptr, ptr %20, align 8, !tbaa !24
  %22 = sext i32 %13 to i64
  %23 = tail call i32 @memcmp(ptr noundef %19, ptr noundef %21, i64 noundef %22) #11
  br label %48

24:                                               ; preds = %6
  %25 = load ptr, ptr %8, align 8, !tbaa !18
  %26 = icmp eq ptr %25, null
  br i1 %26, label %48, label %27

27:                                               ; preds = %24
  %28 = load ptr, ptr %10, align 8, !tbaa !18
  %29 = icmp eq ptr %28, null
  br i1 %29, label %48, label %30

30:                                               ; preds = %27
  %31 = tail call i32 @strcmp(ptr noundef nonnull dereferenceable(1) %25, ptr noundef nonnull dereferenceable(1) %28) #11
  br label %48

32:                                               ; preds = %6
  %33 = getelementptr inbounds nuw i8, ptr %8, i64 8
  %34 = load ptr, ptr %33, align 8, !tbaa !19
  %35 = icmp eq ptr %34, null
  br i1 %35, label %48, label %36

36:                                               ; preds = %32
  %37 = getelementptr inbounds nuw i8, ptr %10, i64 8
  %38 = load ptr, ptr %37, align 8, !tbaa !19
  %39 = icmp eq ptr %38, null
  br i1 %39, label %48, label %40

40:                                               ; preds = %36
  %41 = tail call i32 @strcmp(ptr noundef nonnull dereferenceable(1) %34, ptr noundef nonnull dereferenceable(1) %38) #11
  br label %48

42:                                               ; preds = %6
  %43 = getelementptr inbounds nuw i8, ptr %8, i64 16
  %44 = load i32, ptr %43, align 8, !tbaa !13
  %45 = getelementptr inbounds nuw i8, ptr %10, i64 16
  %46 = load i32, ptr %45, align 8, !tbaa !13
  %47 = sub nsw i32 %44, %46
  br label %48

48:                                               ; preds = %6, %36, %32, %27, %24, %11, %2, %42, %40, %30, %17
  %.0 = phi i32 [ %47, %42 ], [ %41, %40 ], [ %31, %30 ], [ %23, %17 ], [ %5, %2 ], [ %16, %11 ], [ -1, %24 ], [ 1, %27 ], [ -1, %32 ], [ 1, %36 ], [ 0, %6 ]
  ret i32 %.0
}